; Function Attrs: mustprogress nounwind uwtable
define dso_local void @_ZNK4llvm5APInt8usub_satERKS0_(ptr dead_on_unwind noalias writable writeonly sret(%"class.llvm::APInt") align 8 captures(none) initializes((0, 12)) %0, ptr noundef nonnull readonly align 8 captures(none) dereferenceable(12) %1, ptr noundef nonnull readonly align 8 captures(none) dereferenceable(12) %2) local_unnamed_addr #0 align 2 {
  %4 = alloca i8, align 1
  %5 = alloca %"class.llvm::APInt", align 8
  call void @_ZNK4llvm5APInt7usub_ovERKS0_Rb(ptr dead_on_unwind nonnull writable sret(%"class.llvm::APInt") align 8 %5, ptr noundef nonnull align 8 dereferenceable(12) %1, ptr noundef nonnull align 8 dereferenceable(12) %2, ptr noundef nonnull align 1 dereferenceable(1) %4)
  %6 = load i8, ptr %4, align 1
  %7 = trunc i8 %6 to i1
  br i1 %7, label %13, label %8

8:                                                ; preds = %3
  %9 = getelementptr inbounds nuw i8, ptr %0, i64 8
  %10 = getelementptr inbounds nuw i8, ptr %5, i64 8
  %11 = load i32, ptr %10, align 8
  store i32 %11, ptr %9, align 8
  %12 = load i64, ptr %5, align 8
  store i64 %12, ptr %0, align 8
  store i32 0, ptr %10, align 8
  br label %_ZN4llvm5APIntC2Ejmbb.exit

13:                                               ; preds = %3
  %14 = getelementptr inbounds nuw i8, ptr %1, i64 8
  %15 = load i32, ptr %14, align 8
  %16 = getelementptr inbounds nuw i8, ptr %0, i64 8
  store i32 %15, ptr %16, align 8
  %17 = icmp ult i32 %15, 65
  br i1 %17, label %18, label %19

18:                                               ; preds = %13
  store i64 0, ptr %0, align 8
  br label %_ZN4llvm5APIntC2Ejmbb.exit

19:                                               ; preds = %13
  %20 = zext i32 %15 to i64
  %21 = add nuw nsw i64 %20, 63
  %22 = lshr i64 %21, 3
  %23 = and i64 %22, 1073741816
  %24 = tail call noalias noundef nonnull ptr @_Znam(i64 noundef %23) #21
  tail call void @llvm.memset.p0.i64(ptr nonnull align 8 %24, i8 0, i64 %23, i1 false)
  store ptr %24, ptr %0, align 8
  store i64 0, ptr %24, align 8
  %25 = add i32 %15, 63
  %26 = and i32 %25, 63
  %27 = xor i32 %26, 63
  %28 = zext nneg i32 %27 to i64
  %29 = lshr i64 -1, %28
  %.pre8.i = lshr i64 %21, 6
  %30 = add nuw nsw i64 %.pre8.i, 4294967295
  %31 = and i64 %30, 4294967295
  %32 = getelementptr inbounds nuw i64, ptr %24, i64 %31
  %33 = load i64, ptr %32, align 8
  %34 = and i64 %33, %29
  store i64 %34, ptr %32, align 8
  br label %_ZN4llvm5APIntC2Ejmbb.exit

_ZN4llvm5APIntC2Ejmbb.exit:                       ; preds = %19, %18, %8
  %35 = getelementptr inbounds nuw i8, ptr %5, i64 8
  %36 = load i32, ptr %35, align 8
  %37 = icmp ugt i32 %36, 64
  br i1 %37, label %38, label %_ZN4llvm5APIntD2Ev.exit

38:                                               ; preds = %_ZN4llvm5APIntC2Ejmbb.exit
  %39 = load ptr, ptr %5, align 8
  %40 = icmp eq ptr %39, null
  br i1 %40, label %_ZN4llvm5APIntD2Ev.exit, label %41

41:                                               ; preds = %38
  tail call void @_ZdaPv(ptr noundef nonnull %39) #22
  br label %_ZN4llvm5APIntD2Ev.exit

_ZN4llvm5APIntD2Ev.exit:                          ; preds = %_ZN4llvm5APIntC2Ejmbb.exit, %38, %41
  ret void
}